; Function Attrs: nounwind uwtable
define dso_local range(i32 0, 9) i32 @lzma_outq_init(ptr noundef captures(none) %0, ptr noundef %1, i32 noundef %2) local_unnamed_addr #1 {
  %4 = icmp ugt i32 %2, 16384
  br i1 %4, label %61, label %5

5:                                                ; preds = %3
  %6 = shl nuw nsw i32 %2, 1
  %7 = load ptr, ptr %0, align 8, !tbaa !19
  %.not17 = icmp eq ptr %7, null
  br i1 %.not17, label %.preheader, label %.lr.ph

.lr.ph:                                           ; preds = %5
  %8 = getelementptr inbounds nuw i8, ptr %0, i64 8
  %9 = getelementptr inbounds nuw i8, ptr %0, i64 24
  %10 = getelementptr inbounds nuw i8, ptr %0, i64 52
  %11 = getelementptr inbounds nuw i8, ptr %0, i64 32
  %12 = getelementptr inbounds nuw i8, ptr %0, i64 48
  %13 = getelementptr inbounds nuw i8, ptr %0, i64 40
  br label %19

.preheader:                                       ; preds = %move_head_to_cache.exit, %5
  %14 = getelementptr inbounds nuw i8, ptr %0, i64 52
  %15 = load i32, ptr %14, align 4, !tbaa !13
  %16 = icmp ult i32 %6, %15
  br i1 %16, label %.lr.ph18, label %._crit_edge

.lr.ph18:                                         ; preds = %.preheader
  %17 = getelementptr inbounds nuw i8, ptr %0, i64 24
  %18 = getelementptr inbounds nuw i8, ptr %0, i64 32
  br label %48

19:                                               ; preds = %.lr.ph, %move_head_to_cache.exit
  %20 = phi ptr [ %7, %.lr.ph ], [ %47, %move_head_to_cache.exit ]
  %21 = load ptr, ptr %20, align 8, !tbaa !12
  store ptr %21, ptr %0, align 8, !tbaa !19
  %22 = icmp eq ptr %21, null
  br i1 %22, label %23, label %24

23:                                               ; preds = %19
  store ptr null, ptr %8, align 8, !tbaa !20
  br label %24

24:                                               ; preds = %23, %19
  %25 = load ptr, ptr %9, align 8, !tbaa !4
  %.not.i = icmp eq ptr %25, null
  br i1 %.not.i, label %move_head_to_cache.exit, label %26

26:                                               ; preds = %24
  %27 = getelementptr inbounds nuw i8, ptr %25, i64 16
  %28 = load i64, ptr %27, align 8, !tbaa !14
  %29 = getelementptr inbounds nuw i8, ptr %20, i64 16
  %30 = load i64, ptr %29, align 8, !tbaa !14
  %.not17.i = icmp eq i64 %28, %30
  br i1 %.not17.i, label %move_head_to_cache.exit, label %.lr.ph.i.i

.lr.ph.i.i:                                       ; preds = %26, %.lr.ph.i.i
  %31 = phi ptr [ %39, %.lr.ph.i.i ], [ %25, %26 ]
  %32 = load ptr, ptr %31, align 8, !tbaa !12
  store ptr %32, ptr %9, align 8, !tbaa !4
  %33 = load i32, ptr %10, align 4, !tbaa !13
  %34 = add i32 %33, -1
  store i32 %34, ptr %10, align 4, !tbaa !13
  %35 = getelementptr inbounds nuw i8, ptr %31, i64 16
  %36 = load i64, ptr %35, align 8, !tbaa !14
  %37 = load i64, ptr %11, align 8, !tbaa !15
  %reass.sub = sub i64 %37, %36
  %38 = add i64 %reass.sub, -64
  store i64 %38, ptr %11, align 8, !tbaa !15
  tail call void @lzma_free(ptr noundef nonnull %31, ptr noundef %1) #6
  %39 = load ptr, ptr %9, align 8, !tbaa !4
  %.not.i.i = icmp eq ptr %39, null
  br i1 %.not.i.i, label %move_head_to_cache.exit, label %.lr.ph.i.i, !llvm.loop !16

move_head_to_cache.exit:                          ; preds = %.lr.ph.i.i, %24, %26
  %40 = phi ptr [ %25, %26 ], [ null, %24 ], [ null, %.lr.ph.i.i ]
  store ptr %40, ptr %20, align 8, !tbaa !12
  store ptr %20, ptr %9, align 8, !tbaa !4
  %41 = load i32, ptr %12, align 8, !tbaa !21
  %42 = add i32 %41, -1
  store i32 %42, ptr %12, align 8, !tbaa !21
  %43 = getelementptr inbounds nuw i8, ptr %20, i64 16
  %44 = load i64, ptr %43, align 8, !tbaa !14
  %45 = load i64, ptr %13, align 8, !tbaa !22
  %reass.sub19 = sub i64 %45, %44
  %46 = add i64 %reass.sub19, -64
  store i64 %46, ptr %13, align 8, !tbaa !22
  %47 = load ptr, ptr %0, align 8, !tbaa !19
  %.not = icmp eq ptr %47, null
  br i1 %.not, label %.preheader, label %19, !llvm.loop !23

48:                                               ; preds = %.lr.ph18, %48
  %49 = phi i32 [ %15, %.lr.ph18 ], [ %57, %48 ]
  %50 = load ptr, ptr %17, align 8, !tbaa !4
  %51 = load ptr, ptr %50, align 8, !tbaa !12
  store ptr %51, ptr %17, align 8, !tbaa !4
  %52 = add i32 %49, -1
  store i32 %52, ptr %14, align 4, !tbaa !13
  %53 = getelementptr inbounds nuw i8, ptr %50, i64 16
  %54 = load i64, ptr %53, align 8, !tbaa !14
  %55 = load i64, ptr %18, align 8, !tbaa !15
  %reass.sub20 = sub i64 %55, %54
  %56 = add i64 %reass.sub20, -64
  store i64 %56, ptr %18, align 8, !tbaa !15
  tail call void @lzma_free(ptr noundef nonnull %50, ptr noundef %1) #6
  %57 = load i32, ptr %14, align 4, !tbaa !13
  %58 = icmp ult i32 %6, %57
  br i1 %58, label %48, label %._crit_edge, !llvm.loop !24

._crit_edge:                                      ; preds = %48, %.preheader
  %59 = getelementptr inbounds nuw i8, ptr %0, i64 56
  store i32 %6, ptr %59, align 8, !tbaa !25
  %60 = getelementptr inbounds nuw i8, ptr %0, i64 16
  store i64 0, ptr %60, align 8, !tbaa !26
  br label %61

61:                                               ; preds = %3, %._crit_edge
  %.0 = phi i32 [ 0, %._crit_edge ], [ 8, %3 ]
  ret i32 %.0
}